target datalayout = "e-m:e-p270:32:32-p271:32:32-p272:64:64-i64:64-i128:128-f80:128-n8:16:32:64-S128"
target triple = "x86_64-pc-linux-gnu"

@pt.buf = internal global [81 x i8] zeroinitializer, align 16
@.str.45 = private unnamed_addr constant [5 x i8] c"%02x\00", align 1

; Function Attrs: nounwind uwtable
define internal ptr @pt(ptr noundef %0, i32 noundef %1) #0 {
  %3 = alloca ptr, align 8
  %4 = alloca i32, align 4
  %5 = alloca i32, align 4
  store ptr %0, ptr %3, align 8, !tbaa !20
  store i32 %1, ptr %4, align 4, !tbaa !9
  call void @llvm.lifetime.start.p0(i64 4, ptr %5) #5
  store i32 0, ptr %5, align 4, !tbaa !9
  br label %6

6:                                                ; preds = %30, %2
  %7 = load i32, ptr %5, align 4, !tbaa !9
  %8 = load i32, ptr %4, align 4, !tbaa !9
  %9 = icmp ult i32 %7, %8
  br i1 %9, label %10, label %16

10:                                               ; preds = %6
  %11 = load i32, ptr %5, align 4, !tbaa !9
  %12 = add i32 %11, 1
  %13 = mul i32 %12, 2
  %14 = zext i32 %13 to i64
  %15 = icmp ult i64 %14, 81
  br label %16

16:                                               ; preds = %10, %6
  %17 = phi i1 [ false, %6 ], [ %15, %10 ]
  br i1 %17, label %18, label %33

18:                                               ; preds = %16
  %19 = load i32, ptr %5, align 4, !tbaa !9
  %20 = mul i32 %19, 2
  %21 = zext i32 %20 to i64
  %22 = getelementptr inbounds nuw i8, ptr @pt.buf, i64 %21
  %23 = load ptr, ptr %3, align 8, !tbaa !20
  %24 = load i32, ptr %5, align 4, !tbaa !9
  %25 = zext i32 %24 to i64
  %26 = getelementptr inbounds nuw i8, ptr %23, i64 %25
  %27 = load i8, ptr %26, align 1, !tbaa !22
  %28 = zext i8 %27 to i32
  %29 = call i32 (ptr, i64, ptr, ...) @BIO_snprintf(ptr noundef %22, i64 noundef 3, ptr noundef @.str.45, i32 noundef %28)
  br label %30

30:                                               ; preds = %18
  %31 = load i32, ptr %5, align 4, !tbaa !9
  %32 = add i32 %31, 1
  store i32 %32, ptr %5, align 4, !tbaa !9
  br label %6, !llvm.loop !23

33:                                               ; preds = %16
  call void @llvm.lifetime.end.p0(i64 4, ptr %5) #5
  ret ptr @pt.buf
}