; Function Attrs: nounwind uwtable
define internal fastcc void @pt(ptr noundef nonnull readonly captures(none) %0, i32 noundef %1) unnamed_addr #0 {
  %.not = icmp eq i32 %1, 0
  br i1 %.not, label %._crit_edge, label %.lr.ph.preheader

.lr.ph.preheader:                                 ; preds = %2
  %3 = add i32 %1, -1
  %umin = tail call i32 @llvm.umin.i32(i32 %3, i32 39)
  %4 = add nuw nsw i32 %umin, 1
  %wide.trip.count = zext nneg i32 %4 to i64
  br label %.lr.ph

.lr.ph:                                           ; preds = %.lr.ph.preheader, %.lr.ph
  %indvars.iv7 = phi i64 [ 0, %.lr.ph.preheader ], [ %indvars.iv.next8, %.lr.ph ]
  %5 = shl nuw i64 %indvars.iv7, 1
  %6 = getelementptr inbounds nuw i8, ptr @pt.buf, i64 %5
  %7 = getelementptr inbounds nuw i8, ptr %0, i64 %indvars.iv7
  %8 = load i8, ptr %7, align 1, !tbaa !17
  %9 = zext i8 %8 to i32
  %10 = tail call i32 (ptr, i64, ptr, ...) @BIO_snprintf(ptr noundef nonnull %6, i64 noundef 3, ptr noundef nonnull @.str.45, i32 noundef %9) #6
  %indvars.iv.next8 = add nuw nsw i64 %indvars.iv7, 1
  %exitcond.not = icmp eq i64 %indvars.iv.next8, %wide.trip.count
  br i1 %exitcond.not, label %._crit_edge, label %.lr.ph, !llvm.loop !18

._crit_edge:                                      ; preds = %.lr.ph, %2
  ret void
}